; Function Attrs: nounwind uwtable
define void @Abc_NtkTimeSetDefaultArrival(ptr noundef captures(none) %0, float noundef %1, float noundef %2) local_unnamed_addr #3 {
  %4 = getelementptr inbounds nuw i8, ptr %0, i64 264
  %5 = load ptr, ptr %4, align 8
  %6 = icmp eq ptr %5, null
  br i1 %6, label %7, label %9

7:                                                ; preds = %3
  %8 = tail call fastcc ptr @Abc_ManTimeStart(ptr noundef nonnull %0)
  store ptr %8, ptr %4, align 8
  br label %9

9:                                                ; preds = %7, %3
  %10 = phi ptr [ %8, %7 ], [ %5, %3 ]
  store float %1, ptr %10, align 8
  %11 = load ptr, ptr %4, align 8
  %12 = getelementptr inbounds nuw i8, ptr %11, i64 4
  store float %2, ptr %12, align 4
  %13 = getelementptr i8, ptr %0, i64 56
  %.val17 = load ptr, ptr %13, align 8
  %14 = getelementptr i8, ptr %.val17, i64 4
  %.val.val18 = load i32, ptr %14, align 4
  %15 = icmp sgt i32 %.val.val18, 0
  br i1 %15, label %.lr.ph, label %.critedge

.lr.ph:                                           ; preds = %9, %Abc_NtkTimeSetArrival.exit
  %indvars.iv = phi i64 [ %indvars.iv.next, %Abc_NtkTimeSetArrival.exit ], [ 0, %9 ]
  %.val20 = phi ptr [ %.val, %Abc_NtkTimeSetArrival.exit ], [ %.val17, %9 ]
  %16 = getelementptr i8, ptr %.val20, i64 8
  %.val15.val = load ptr, ptr %16, align 8
  %17 = getelementptr inbounds nuw ptr, ptr %.val15.val, i64 %indvars.iv
  %18 = load ptr, ptr %17, align 8
  %19 = getelementptr i8, ptr %18, i64 16
  %.val16 = load i32, ptr %19, align 8
  %20 = load ptr, ptr %4, align 8
  %21 = icmp eq ptr %20, null
  br i1 %21, label %22, label %Abc_NtkTimeSetArrival.exit

22:                                               ; preds = %.lr.ph
  %23 = tail call fastcc ptr @Abc_ManTimeStart(ptr noundef nonnull %0)
  store ptr %23, ptr %4, align 8
  br label %Abc_NtkTimeSetArrival.exit

Abc_NtkTimeSetArrival.exit:                       ; preds = %.lr.ph, %22
  %24 = phi ptr [ %23, %22 ], [ %20, %.lr.ph ]
  %25 = add nsw i32 %.val16, 1
  tail call fastcc void @Abc_ManTimeExpand(ptr noundef %24, i32 noundef %25, i32 noundef 1)
  %26 = load ptr, ptr %4, align 8
  %27 = getelementptr inbounds nuw i8, ptr %26, i64 16
  %28 = load ptr, ptr %27, align 8
  %29 = getelementptr inbounds nuw i8, ptr %28, i64 8
  %30 = load ptr, ptr %29, align 8
  %31 = sext i32 %.val16 to i64
  %32 = getelementptr inbounds ptr, ptr %30, i64 %31
  %33 = load ptr, ptr %32, align 8
  store float %1, ptr %33, align 4
  %34 = getelementptr inbounds nuw i8, ptr %33, i64 4
  store float %2, ptr %34, align 4
  %indvars.iv.next = add nuw nsw i64 %indvars.iv, 1
  %.val = load ptr, ptr %13, align 8
  %35 = getelementptr i8, ptr %.val, i64 4
  %.val.val = load i32, ptr %35, align 4
  %36 = sext i32 %.val.val to i64
  %37 = icmp slt i64 %indvars.iv.next, %36
  br i1 %37, label %.lr.ph, label %.critedge, !llvm.loop !4

.critedge:                                        ; preds = %Abc_NtkTimeSetArrival.exit, %9
  ret void
}